target datalayout = "e-m:e-p270:32:32-p271:32:32-p272:64:64-i64:64-i128:128-f80:128-n8:16:32:64-S128"
target triple = "x86_64-unknown-linux-gnu"

%class.symbol = type { ptr }
%"class.datalog::rule" = type { %"class.datalog::accounted_object.base", ptr, ptr, i32, i32, i32, i32, %class.symbol, [0 x ptr] }
%"class.datalog::accounted_object.base" = type <{ ptr, ptr, %"struct.datalog::costs", %"struct.datalog::costs", i8 }>
%"struct.datalog::costs" = type { i32, i32 }
%class.ast = type { i32, i24, i32, i32 }

; Function Attrs: mustprogress nounwind uwtable
define linkonce_odr hidden noundef i32 @_Z12combine_hashjj(i32 noundef %h1, i32 noundef %h2) #5 comdat {
entry:
  %h1.addr = alloca i32, align 4
  %h2.addr = alloca i32, align 4
  store i32 %h1, ptr %h1.addr, align 4
  store i32 %h2, ptr %h2.addr, align 4
  %0 = load i32, ptr %h1.addr, align 4
  %1 = load i32, ptr %h2.addr, align 4
  %sub = sub i32 %1, %0
  store i32 %sub, ptr %h2.addr, align 4
  %2 = load i32, ptr %h1.addr, align 4
  %shl = shl i32 %2, 8
  %3 = load i32, ptr %h2.addr, align 4
  %xor = xor i32 %3, %shl
  store i32 %xor, ptr %h2.addr, align 4
  %4 = load i32, ptr %h2.addr, align 4
  %5 = load i32, ptr %h1.addr, align 4
  %sub1 = sub i32 %5, %4
  store i32 %sub1, ptr %h1.addr, align 4
  %6 = load i32, ptr %h1.addr, align 4
  %shl2 = shl i32 %6, 16
  %7 = load i32, ptr %h2.addr, align 4
  %xor3 = xor i32 %7, %shl2
  store i32 %xor3, ptr %h2.addr, align 4
  %8 = load i32, ptr %h1.addr, align 4
  %9 = load i32, ptr %h2.addr, align 4
  %sub4 = sub i32 %9, %8
  store i32 %sub4, ptr %h2.addr, align 4
  %10 = load i32, ptr %h1.addr, align 4
  %shl5 = shl i32 %10, 10
  %11 = load i32, ptr %h2.addr, align 4
  %xor6 = xor i32 %11, %shl5
  store i32 %xor6, ptr %h2.addr, align 4
  %12 = load i32, ptr %h2.addr, align 4
  ret i32 %12
}

; Function Attrs: mustprogress nounwind uwtable
define linkonce_odr hidden noundef zeroext i1 @_ZNK7datalog4rule11is_neg_tailEj(ptr noundef nonnull align 8 dereferenceable(80) %this, i32 noundef %i) #5 comdat align 2 {
entry:
  %this.addr = alloca ptr, align 8
  %i.addr = alloca i32, align 4
  store ptr %this, ptr %this.addr, align 8
  store i32 %i, ptr %i.addr, align 4
  %this1 = load ptr, ptr %this.addr, align 8
  %m_tail = getelementptr inbounds %"class.datalog::rule", ptr %this1, i32 0, i32 8
  %0 = load i32, ptr %i.addr, align 4
  %idxprom = zext i32 %0 to i64
  %arrayidx = getelementptr inbounds [0 x ptr], ptr %m_tail, i64 0, i64 %idxprom
  %1 = load ptr, ptr %arrayidx, align 8
  %2 = ptrtoint ptr %1 to i64
  %and = and i64 %2, 7
  %cmp = icmp eq i64 %and, 1
  ret i1 %cmp
}

; Function Attrs: mustprogress nounwind uwtable
define linkonce_odr hidden noundef ptr @_ZNK7datalog4rule8get_tailEj(ptr noundef nonnull align 8 dereferenceable(80) %this, i32 noundef %i) #5 comdat align 2 {
entry:
  %this.addr = alloca ptr, align 8
  %i.addr = alloca i32, align 4
  store ptr %this, ptr %this.addr, align 8
  store i32 %i, ptr %i.addr, align 4
  %this1 = load ptr, ptr %this.addr, align 8
  %m_tail = getelementptr inbounds %"class.datalog::rule", ptr %this1, i32 0, i32 8
  %0 = load i32, ptr %i.addr, align 4
  %idxprom = zext i32 %0 to i64
  %arrayidx = getelementptr inbounds [0 x ptr], ptr %m_tail, i64 0, i64 %idxprom
  %1 = load ptr, ptr %arrayidx, align 8
  %2 = ptrtoint ptr %1 to i64
  %and = and i64 %2, -8
  %3 = inttoptr i64 %and to ptr
  ret ptr %3
}

; Function Attrs: mustprogress nounwind uwtable
define linkonce_odr hidden noundef i32 @_ZNK7datalog4rule13get_tail_sizeEv(ptr noundef nonnull align 8 dereferenceable(80) %this) #5 comdat align 2 {
entry:
  %this.addr = alloca ptr, align 8
  store ptr %this, ptr %this.addr, align 8
  %this1 = load ptr, ptr %this.addr, align 8
  %m_tail_size = getelementptr inbounds %"class.datalog::rule", ptr %this1, i32 0, i32 3
  %0 = load i32, ptr %m_tail_size, align 8
  ret i32 %0
}

; Function Attrs: mustprogress nounwind uwtable
define linkonce_odr hidden noundef i32 @_ZNK3ast4hashEv(ptr noundef nonnull align 4 dereferenceable(16) %this) #5 comdat align 2 {
entry:
  %this.addr = alloca ptr, align 8
  store ptr %this, ptr %this.addr, align 8
  %this1 = load ptr, ptr %this.addr, align 8
  %m_hash = getelementptr inbounds %class.ast, ptr %this1, i32 0, i32 3
  %0 = load i32, ptr %m_hash, align 4
  ret i32 %0
}

; Function Attrs: mustprogress nounwind uwtable
define linkonce_odr hidden noundef ptr @_ZNK7datalog4rule8get_headEv(ptr noundef nonnull align 8 dereferenceable(80) %this) #5 comdat align 2 {
entry:
  %this.addr = alloca ptr, align 8
  store ptr %this, ptr %this.addr, align 8
  %this1 = load ptr, ptr %this.addr, align 8
  %m_head = getelementptr inbounds %"class.datalog::rule", ptr %this1, i32 0, i32 1
  %0 = load ptr, ptr %m_head, align 8
  ret ptr %0
}

; Function Attrs: mustprogress uwtable
define hidden noundef i32 @_ZNK7datalog4rule4hashEv(ptr noundef nonnull align 8 dereferenceable(80) %this) #4 align 2 {
entry:
  %this.addr = alloca ptr, align 8
  %res = alloca i32, align 4
  %tail_len = alloca i32, align 4
  %i = alloca i32, align 4
  store ptr %this, ptr %this.addr, align 8
  %this1 = load ptr, ptr %this.addr, align 8
  %call = call noundef ptr @_ZNK7datalog4rule8get_headEv(ptr noundef nonnull align 8 dereferenceable(80) %this1)
  %call2 = call noundef i32 @_ZNK3ast4hashEv(ptr noundef nonnull align 4 dereferenceable(16) %call)
  store i32 %call2, ptr %res, align 4
  %call3 = call noundef i32 @_ZNK7datalog4rule13get_tail_sizeEv(ptr noundef nonnull align 8 dereferenceable(80) %this1)
  store i32 %call3, ptr %tail_len, align 4
  store i32 0, ptr %i, align 4
  br label %for.cond

for.cond:                                         ; preds = %for.inc, %entry
  %0 = load i32, ptr %i, align 4
  %1 = load i32, ptr %tail_len, align 4
  %cmp = icmp ult i32 %0, %1
  br i1 %cmp, label %for.body, label %for.end

for.body:                                         ; preds = %for.cond
  %2 = load i32, ptr %res, align 4
  %3 = load i32, ptr %i, align 4
  %call4 = call noundef ptr @_ZNK7datalog4rule8get_tailEj(ptr noundef nonnull align 8 dereferenceable(80) %this1, i32 noundef %3)
  %call5 = call noundef i32 @_ZNK3ast4hashEv(ptr noundef nonnull align 4 dereferenceable(16) %call4)
  %4 = load i32, ptr %i, align 4
  %call6 = call noundef zeroext i1 @_ZNK7datalog4rule11is_neg_tailEj(ptr noundef nonnull align 8 dereferenceable(80) %this1, i32 noundef %4)
  %conv = zext i1 %call6 to i32
  %call7 = call noundef i32 @_Z12combine_hashjj(i32 noundef %call5, i32 noundef %conv)
  %call8 = call noundef i32 @_Z12combine_hashjj(i32 noundef %2, i32 noundef %call7)
  store i32 %call8, ptr %res, align 4
  br label %for.inc

for.inc:                                          ; preds = %for.body
  %5 = load i32, ptr %i, align 4
  %inc = add i32 %5, 1
  store i32 %inc, ptr %i, align 4
  br label %for.cond, !llvm.loop !75

for.end:                                          ; preds = %for.cond
  %6 = load i32, ptr %res, align 4
  ret i32 %6
}

; Function Attrs: mustprogress uwtable
define hidden noundef i32 @_ZNK7datalog14rule_hash_procclEPKNS_4ruleE(ptr noundef nonnull align 1 dereferenceable(1) %this, ptr noundef %r) #4 align 2 {
entry:
  %this.addr = alloca ptr, align 8
  %r.addr = alloca ptr, align 8
  store ptr %this, ptr %this.addr, align 8
  store ptr %r, ptr %r.addr, align 8
  %0 = load ptr, ptr %r.addr, align 8
  %call = call noundef i32 @_ZNK7datalog4rule4hashEv(ptr noundef nonnull align 8 dereferenceable(80) %0)
  ret i32 %call
}