; Function Attrs: mustprogress nofree norecurse nosync nounwind willreturn memory(read, inaccessiblemem: none) uwtable
define hidden noundef i32 @_ZNK7datalog14rule_hash_procclEPKNS_4ruleE(ptr nocapture noundef nonnull readnone align 1 dereferenceable(1) %this, ptr nocapture noundef readonly %r) local_unnamed_addr #8 align 2 {
entry:
  %m_head.i.i = getelementptr inbounds i8, ptr %r, i64 40
  %0 = load ptr, ptr %m_head.i.i, align 8
  %m_hash.i.i = getelementptr inbounds i8, ptr %0, i64 12
  %1 = load i32, ptr %m_hash.i.i, align 4
  %m_tail_size.i.i = getelementptr inbounds i8, ptr %r, i64 56
  %2 = load i32, ptr %m_tail_size.i.i, align 8
  %cmp19.not.i = icmp eq i32 %2, 0
  br i1 %cmp19.not.i, label %_ZNK7datalog4rule4hashEv.exit, label %for.body.lr.ph.i

for.body.lr.ph.i:                                 ; preds = %entry
  %m_tail.i.i = getelementptr inbounds i8, ptr %r, i64 80
  %wide.trip.count.i = zext i32 %2 to i64
  br label %for.body.i

for.body.i:                                       ; preds = %for.body.i, %for.body.lr.ph.i
  %indvars.iv.i = phi i64 [ 0, %for.body.lr.ph.i ], [ %indvars.iv.next.i, %for.body.i ]
  %res.020.i = phi i32 [ %1, %for.body.lr.ph.i ], [ %xor6.i18.i, %for.body.i ]
  %arrayidx.i.i = getelementptr inbounds [0 x ptr], ptr %m_tail.i.i, i64 0, i64 %indvars.iv.i
  %3 = load ptr, ptr %arrayidx.i.i, align 8
  %4 = ptrtoint ptr %3 to i64
  %and.i.i = and i64 %4, -8
  %5 = inttoptr i64 %and.i.i to ptr
  %m_hash.i5.i = getelementptr inbounds i8, ptr %5, i64 12
  %6 = load i32, ptr %m_hash.i5.i, align 4
  %and.i9.i = and i64 %4, 7
  %cmp.i.i = icmp eq i64 %and.i9.i, 1
  %conv.i = zext i1 %cmp.i.i to i32
  %sub.i.i = sub i32 %conv.i, %6
  %shl.i.i = shl i32 %6, 8
  %xor.i.i = xor i32 %sub.i.i, %shl.i.i
  %sub1.i.i = sub i32 %6, %xor.i.i
  %shl2.i.i = shl i32 %sub1.i.i, 16
  %xor3.i.i = xor i32 %shl2.i.i, %xor.i.i
  %sub4.i.i = sub i32 %xor3.i.i, %sub1.i.i
  %shl5.i.i = shl i32 %sub1.i.i, 10
  %xor6.i.i = xor i32 %sub4.i.i, %shl5.i.i
  %sub.i10.i = sub i32 %xor6.i.i, %res.020.i
  %shl.i11.i = shl i32 %res.020.i, 8
  %xor.i12.i = xor i32 %sub.i10.i, %shl.i11.i
  %sub1.i13.i = sub i32 %res.020.i, %xor.i12.i
  %shl2.i14.i = shl i32 %sub1.i13.i, 16
  %xor3.i15.i = xor i32 %shl2.i14.i, %xor.i12.i
  %sub4.i16.i = sub i32 %xor3.i15.i, %sub1.i13.i
  %shl5.i17.i = shl i32 %sub1.i13.i, 10
  %xor6.i18.i = xor i32 %sub4.i16.i, %shl5.i17.i
  %indvars.iv.next.i = add nuw nsw i64 %indvars.iv.i, 1
  %exitcond.not.i = icmp eq i64 %indvars.iv.next.i, %wide.trip.count.i
  br i1 %exitcond.not.i, label %_ZNK7datalog4rule4hashEv.exit, label %for.body.i, !llvm.loop !120

_ZNK7datalog4rule4hashEv.exit:                    ; preds = %for.body.i, %entry
  %res.0.lcssa.i = phi i32 [ %1, %entry ], [ %xor6.i18.i, %for.body.i ]
  ret i32 %res.0.lcssa.i
}